target datalayout = "e-m:e-p270:32:32-p271:32:32-p272:64:64-i64:64-i128:128-f80:128-n8:16:32:64-S128"
target triple = "x86_64-pc-linux-gnu"

@.str.1 = private unnamed_addr constant [14 x i8] c"pg_operator.c\00", align 1
@.str.5 = private unnamed_addr constant [43 x i8] c"only binary operators can have commutators\00", align 1
@__func__.OperatorValidateParams = private unnamed_addr constant [23 x i8] c"OperatorValidateParams\00", align 1
@.str.6 = private unnamed_addr constant [48 x i8] c"only binary operators can have join selectivity\00", align 1
@.str.7 = private unnamed_addr constant [37 x i8] c"only binary operators can merge join\00", align 1
@.str.8 = private unnamed_addr constant [31 x i8] c"only binary operators can hash\00", align 1
@.str.9 = private unnamed_addr constant [41 x i8] c"only boolean operators can have negators\00", align 1
@.str.10 = private unnamed_addr constant [56 x i8] c"only boolean operators can have restriction selectivity\00", align 1
@.str.11 = private unnamed_addr constant [49 x i8] c"only boolean operators can have join selectivity\00", align 1
@.str.12 = private unnamed_addr constant [38 x i8] c"only boolean operators can merge join\00", align 1
@.str.13 = private unnamed_addr constant [32 x i8] c"only boolean operators can hash\00", align 1

; Function Attrs: nounwind uwtable
define dso_local void @OperatorValidateParams(i32 noundef %0, i32 noundef %1, i32 noundef %2, i1 noundef zeroext %3, i1 noundef zeroext %4, i1 noundef zeroext %5, i1 noundef zeroext %6, i1 noundef zeroext %7, i1 noundef zeroext %8) #0 {
  %10 = alloca i32, align 4
  %11 = alloca i32, align 4
  %12 = alloca i32, align 4
  %13 = alloca i8, align 1
  %14 = alloca i8, align 1
  %15 = alloca i8, align 1
  %16 = alloca i8, align 1
  %17 = alloca i8, align 1
  %18 = alloca i8, align 1
  store i32 %0, ptr %10, align 4
  store i32 %1, ptr %11, align 4
  store i32 %2, ptr %12, align 4
  %19 = zext i1 %3 to i8
  store i8 %19, ptr %13, align 1
  %20 = zext i1 %4 to i8
  store i8 %20, ptr %14, align 1
  %21 = zext i1 %5 to i8
  store i8 %21, ptr %15, align 1
  %22 = zext i1 %6 to i8
  store i8 %22, ptr %16, align 1
  %23 = zext i1 %7 to i8
  store i8 %23, ptr %17, align 1
  %24 = zext i1 %8 to i8
  store i8 %24, ptr %18, align 1
  %25 = load i32, ptr %10, align 4
  %26 = icmp ne i32 %25, 0
  br i1 %26, label %27, label %30

27:                                               ; preds = %9
  %28 = load i32, ptr %11, align 4
  %29 = icmp ne i32 %28, 0
  br i1 %29, label %87, label %30

30:                                               ; preds = %27, %9
  %31 = load i8, ptr %13, align 1, !range !4, !noundef !5
  %32 = trunc i8 %31 to i1
  br i1 %32, label %33, label %44

33:                                               ; preds = %30
  br label %34

34:                                               ; preds = %33
  br i1 true, label %35, label %37

35:                                               ; preds = %34
  %36 = call zeroext i1 @errstart_cold(i32 noundef 21, ptr noundef null) #8
  br i1 %36, label %39, label %42

37:                                               ; preds = %34
  %38 = call zeroext i1 @errstart(i32 noundef 21, ptr noundef null)
  br i1 %38, label %39, label %42

39:                                               ; preds = %37, %35
  %40 = call i32 @errcode(i32 noundef 50724996)
  %41 = call i32 (ptr, ...) @errmsg(ptr noundef @.str.5)
  call void @errfinish(ptr noundef @.str.1, i32 noundef 572, ptr noundef @__func__.OperatorValidateParams)
  br label %42

42:                                               ; preds = %39, %37, %35
  unreachable

43:                                               ; No predecessors!
  br label %44

44:                                               ; preds = %43, %30
  %45 = load i8, ptr %16, align 1, !range !4, !noundef !5
  %46 = trunc i8 %45 to i1
  br i1 %46, label %47, label %58

47:                                               ; preds = %44
  br label %48

48:                                               ; preds = %47
  br i1 true, label %49, label %51

49:                                               ; preds = %48
  %50 = call zeroext i1 @errstart_cold(i32 noundef 21, ptr noundef null) #8
  br i1 %50, label %53, label %56

51:                                               ; preds = %48
  %52 = call zeroext i1 @errstart(i32 noundef 21, ptr noundef null)
  br i1 %52, label %53, label %56

53:                                               ; preds = %51, %49
  %54 = call i32 @errcode(i32 noundef 50724996)
  %55 = call i32 (ptr, ...) @errmsg(ptr noundef @.str.6)
  call void @errfinish(ptr noundef @.str.1, i32 noundef 576, ptr noundef @__func__.OperatorValidateParams)
  br label %56

56:                                               ; preds = %53, %51, %49
  unreachable

57:                                               ; No predecessors!
  br label %58

58:                                               ; preds = %57, %44
  %59 = load i8, ptr %17, align 1, !range !4, !noundef !5
  %60 = trunc i8 %59 to i1
  br i1 %60, label %61, label %72

61:                                               ; preds = %58
  br label %62

62:                                               ; preds = %61
  br i1 true, label %63, label %65

63:                                               ; preds = %62
  %64 = call zeroext i1 @errstart_cold(i32 noundef 21, ptr noundef null) #8
  br i1 %64, label %67, label %70

65:                                               ; preds = %62
  %66 = call zeroext i1 @errstart(i32 noundef 21, ptr noundef null)
  br i1 %66, label %67, label %70

67:                                               ; preds = %65, %63
  %68 = call i32 @errcode(i32 noundef 50724996)
  %69 = call i32 (ptr, ...) @errmsg(ptr noundef @.str.7)
  call void @errfinish(ptr noundef @.str.1, i32 noundef 580, ptr noundef @__func__.OperatorValidateParams)
  br label %70

70:                                               ; preds = %67, %65, %63
  unreachable

71:                                               ; No predecessors!
  br label %72

72:                                               ; preds = %71, %58
  %73 = load i8, ptr %18, align 1, !range !4, !noundef !5
  %74 = trunc i8 %73 to i1
  br i1 %74, label %75, label %86

75:                                               ; preds = %72
  br label %76

76:                                               ; preds = %75
  br i1 true, label %77, label %79

77:                                               ; preds = %76
  %78 = call zeroext i1 @errstart_cold(i32 noundef 21, ptr noundef null) #8
  br i1 %78, label %81, label %84

79:                                               ; preds = %76
  %80 = call zeroext i1 @errstart(i32 noundef 21, ptr noundef null)
  br i1 %80, label %81, label %84

81:                                               ; preds = %79, %77
  %82 = call i32 @errcode(i32 noundef 50724996)
  %83 = call i32 (ptr, ...) @errmsg(ptr noundef @.str.8)
  call void @errfinish(ptr noundef @.str.1, i32 noundef 584, ptr noundef @__func__.OperatorValidateParams)
  br label %84

84:                                               ; preds = %81, %79, %77
  unreachable

85:                                               ; No predecessors!
  br label %86

86:                                               ; preds = %85, %72
  br label %87

87:                                               ; preds = %86, %27
  %88 = load i32, ptr %12, align 4
  %89 = icmp ne i32 %88, 16
  br i1 %89, label %90, label %161

90:                                               ; preds = %87
  %91 = load i8, ptr %14, align 1, !range !4, !noundef !5
  %92 = trunc i8 %91 to i1
  br i1 %92, label %93, label %104

93:                                               ; preds = %90
  br label %94

94:                                               ; preds = %93
  br i1 true, label %95, label %97

95:                                               ; preds = %94
  %96 = call zeroext i1 @errstart_cold(i32 noundef 21, ptr noundef null) #8
  br i1 %96, label %99, label %102

97:                                               ; preds = %94
  %98 = call zeroext i1 @errstart(i32 noundef 21, ptr noundef null)
  br i1 %98, label %99, label %102

99:                                               ; preds = %97, %95
  %100 = call i32 @errcode(i32 noundef 50724996)
  %101 = call i32 (ptr, ...) @errmsg(ptr noundef @.str.9)
  call void @errfinish(ptr noundef @.str.1, i32 noundef 593, ptr noundef @__func__.OperatorValidateParams)
  br label %102

102:                                              ; preds = %99, %97, %95
  unreachable

103:                                              ; No predecessors!
  br label %104

104:                                              ; preds = %103, %90
  %105 = load i8, ptr %15, align 1, !range !4, !noundef !5
  %106 = trunc i8 %105 to i1
  br i1 %106, label %107, label %118

107:                                              ; preds = %104
  br label %108

108:                                              ; preds = %107
  br i1 true, label %109, label %111

109:                                              ; preds = %108
  %110 = call zeroext i1 @errstart_cold(i32 noundef 21, ptr noundef null) #8
  br i1 %110, label %113, label %116

111:                                              ; preds = %108
  %112 = call zeroext i1 @errstart(i32 noundef 21, ptr noundef null)
  br i1 %112, label %113, label %116

113:                                              ; preds = %111, %109
  %114 = call i32 @errcode(i32 noundef 50724996)
  %115 = call i32 (ptr, ...) @errmsg(ptr noundef @.str.10)
  call void @errfinish(ptr noundef @.str.1, i32 noundef 597, ptr noundef @__func__.OperatorValidateParams)
  br label %116

116:                                              ; preds = %113, %111, %109
  unreachable

117:                                              ; No predecessors!
  br label %118

118:                                              ; preds = %117, %104
  %119 = load i8, ptr %16, align 1, !range !4, !noundef !5
  %120 = trunc i8 %119 to i1
  br i1 %120, label %121, label %132

121:                                              ; preds = %118
  br label %122

122:                                              ; preds = %121
  br i1 true, label %123, label %125

123:                                              ; preds = %122
  %124 = call zeroext i1 @errstart_cold(i32 noundef 21, ptr noundef null) #8
  br i1 %124, label %127, label %130

125:                                              ; preds = %122
  %126 = call zeroext i1 @errstart(i32 noundef 21, ptr noundef null)
  br i1 %126, label %127, label %130

127:                                              ; preds = %125, %123
  %128 = call i32 @errcode(i32 noundef 50724996)
  %129 = call i32 (ptr, ...) @errmsg(ptr noundef @.str.11)
  call void @errfinish(ptr noundef @.str.1, i32 noundef 601, ptr noundef @__func__.OperatorValidateParams)
  br label %130

130:                                              ; preds = %127, %125, %123
  unreachable

131:                                              ; No predecessors!
  br label %132

132:                                              ; preds = %131, %118
  %133 = load i8, ptr %17, align 1, !range !4, !noundef !5
  %134 = trunc i8 %133 to i1
  br i1 %134, label %135, label %146

135:                                              ; preds = %132
  br label %136

136:                                              ; preds = %135
  br i1 true, label %137, label %139

137:                                              ; preds = %136
  %138 = call zeroext i1 @errstart_cold(i32 noundef 21, ptr noundef null) #8
  br i1 %138, label %141, label %144

139:                                              ; preds = %136
  %140 = call zeroext i1 @errstart(i32 noundef 21, ptr noundef null)
  br i1 %140, label %141, label %144

141:                                              ; preds = %139, %137
  %142 = call i32 @errcode(i32 noundef 50724996)
  %143 = call i32 (ptr, ...) @errmsg(ptr noundef @.str.12)
  call void @errfinish(ptr noundef @.str.1, i32 noundef 605, ptr noundef @__func__.OperatorValidateParams)
  br label %144

144:                                              ; preds = %141, %139, %137
  unreachable

145:                                              ; No predecessors!
  br label %146

146:                                              ; preds = %145, %132
  %147 = load i8, ptr %18, align 1, !range !4, !noundef !5
  %148 = trunc i8 %147 to i1
  br i1 %148, label %149, label %160

149:                                              ; preds = %146
  br label %150

150:                                              ; preds = %149
  br i1 true, label %151, label %153

151:                                              ; preds = %150
  %152 = call zeroext i1 @errstart_cold(i32 noundef 21, ptr noundef null) #8
  br i1 %152, label %155, label %158

153:                                              ; preds = %150
  %154 = call zeroext i1 @errstart(i32 noundef 21, ptr noundef null)
  br i1 %154, label %155, label %158

155:                                              ; preds = %153, %151
  %156 = call i32 @errcode(i32 noundef 50724996)
  %157 = call i32 (ptr, ...) @errmsg(ptr noundef @.str.13)
  call void @errfinish(ptr noundef @.str.1, i32 noundef 609, ptr noundef @__func__.OperatorValidateParams)
  br label %158

158:                                              ; preds = %155, %153, %151
  unreachable

159:                                              ; No predecessors!
  br label %160

160:                                              ; preds = %159, %146
  br label %161

161:                                              ; preds = %160, %87
  ret void
}