; Function Attrs: nounwind uwtable
define dso_local void @OperatorValidateParams(i32 noundef %0, i32 noundef %1, i32 noundef %2, i1 noundef zeroext %3, i1 noundef zeroext %4, i1 noundef zeroext %5, i1 noundef zeroext %6, i1 noundef zeroext %7, i1 noundef zeroext %8) local_unnamed_addr #0 {
  %10 = icmp ne i32 %0, 0
  %11 = icmp ne i32 %1, 0
  %or.cond = and i1 %10, %11
  br i1 %or.cond, label %32, label %12

12:                                               ; preds = %9
  br i1 %3, label %13, label %17

13:                                               ; preds = %12
  %14 = tail call zeroext i1 @errstart_cold(i32 noundef 21, ptr noundef null) #10
  tail call void @llvm.assume(i1 %14)
  %15 = tail call i32 @errcode(i32 noundef 50724996) #9
  %16 = tail call i32 (ptr, ...) @errmsg(ptr noundef nonnull @.str.5) #9
  tail call void @errfinish(ptr noundef nonnull @.str.1, i32 noundef 572, ptr noundef nonnull @__func__.OperatorValidateParams) #9
  unreachable

17:                                               ; preds = %12
  br i1 %6, label %18, label %22

18:                                               ; preds = %17
  %19 = tail call zeroext i1 @errstart_cold(i32 noundef 21, ptr noundef null) #10
  tail call void @llvm.assume(i1 %19)
  %20 = tail call i32 @errcode(i32 noundef 50724996) #9
  %21 = tail call i32 (ptr, ...) @errmsg(ptr noundef nonnull @.str.6) #9
  tail call void @errfinish(ptr noundef nonnull @.str.1, i32 noundef 576, ptr noundef nonnull @__func__.OperatorValidateParams) #9
  unreachable

22:                                               ; preds = %17
  br i1 %7, label %23, label %27

23:                                               ; preds = %22
  %24 = tail call zeroext i1 @errstart_cold(i32 noundef 21, ptr noundef null) #10
  tail call void @llvm.assume(i1 %24)
  %25 = tail call i32 @errcode(i32 noundef 50724996) #9
  %26 = tail call i32 (ptr, ...) @errmsg(ptr noundef nonnull @.str.7) #9
  tail call void @errfinish(ptr noundef nonnull @.str.1, i32 noundef 580, ptr noundef nonnull @__func__.OperatorValidateParams) #9
  unreachable

27:                                               ; preds = %22
  br i1 %8, label %28, label %32

28:                                               ; preds = %27
  %29 = tail call zeroext i1 @errstart_cold(i32 noundef 21, ptr noundef null) #10
  tail call void @llvm.assume(i1 %29)
  %30 = tail call i32 @errcode(i32 noundef 50724996) #9
  %31 = tail call i32 (ptr, ...) @errmsg(ptr noundef nonnull @.str.8) #9
  tail call void @errfinish(ptr noundef nonnull @.str.1, i32 noundef 584, ptr noundef nonnull @__func__.OperatorValidateParams) #9
  unreachable

32:                                               ; preds = %27, %9
  %.not = icmp eq i32 %2, 16
  br i1 %.not, label %58, label %33

33:                                               ; preds = %32
  br i1 %4, label %34, label %38

34:                                               ; preds = %33
  %35 = tail call zeroext i1 @errstart_cold(i32 noundef 21, ptr noundef null) #10
  tail call void @llvm.assume(i1 %35)
  %36 = tail call i32 @errcode(i32 noundef 50724996) #9
  %37 = tail call i32 (ptr, ...) @errmsg(ptr noundef nonnull @.str.9) #9
  tail call void @errfinish(ptr noundef nonnull @.str.1, i32 noundef 593, ptr noundef nonnull @__func__.OperatorValidateParams) #9
  unreachable

38:                                               ; preds = %33
  br i1 %5, label %39, label %43

39:                                               ; preds = %38
  %40 = tail call zeroext i1 @errstart_cold(i32 noundef 21, ptr noundef null) #10
  tail call void @llvm.assume(i1 %40)
  %41 = tail call i32 @errcode(i32 noundef 50724996) #9
  %42 = tail call i32 (ptr, ...) @errmsg(ptr noundef nonnull @.str.10) #9
  tail call void @errfinish(ptr noundef nonnull @.str.1, i32 noundef 597, ptr noundef nonnull @__func__.OperatorValidateParams) #9
  unreachable

43:                                               ; preds = %38
  br i1 %6, label %44, label %48

44:                                               ; preds = %43
  %45 = tail call zeroext i1 @errstart_cold(i32 noundef 21, ptr noundef null) #10
  tail call void @llvm.assume(i1 %45)
  %46 = tail call i32 @errcode(i32 noundef 50724996) #9
  %47 = tail call i32 (ptr, ...) @errmsg(ptr noundef nonnull @.str.11) #9
  tail call void @errfinish(ptr noundef nonnull @.str.1, i32 noundef 601, ptr noundef nonnull @__func__.OperatorValidateParams) #9
  unreachable

48:                                               ; preds = %43
  br i1 %7, label %49, label %53

49:                                               ; preds = %48
  %50 = tail call zeroext i1 @errstart_cold(i32 noundef 21, ptr noundef null) #10
  tail call void @llvm.assume(i1 %50)
  %51 = tail call i32 @errcode(i32 noundef 50724996) #9
  %52 = tail call i32 (ptr, ...) @errmsg(ptr noundef nonnull @.str.12) #9
  tail call void @errfinish(ptr noundef nonnull @.str.1, i32 noundef 605, ptr noundef nonnull @__func__.OperatorValidateParams) #9
  unreachable

53:                                               ; preds = %48
  br i1 %8, label %54, label %58

54:                                               ; preds = %53
  %55 = tail call zeroext i1 @errstart_cold(i32 noundef 21, ptr noundef null) #10
  tail call void @llvm.assume(i1 %55)
  %56 = tail call i32 @errcode(i32 noundef 50724996) #9
  %57 = tail call i32 (ptr, ...) @errmsg(ptr noundef nonnull @.str.13) #9
  tail call void @errfinish(ptr noundef nonnull @.str.1, i32 noundef 609, ptr noundef nonnull @__func__.OperatorValidateParams) #9
  unreachable

58:                                               ; preds = %53, %32
  ret void
}